target datalayout = "e-m:e-p270:32:32-p271:32:32-p272:64:64-i64:64-i128:128-f80:128-n8:16:32:64-S128"
target triple = "x86_64-pc-linux-gnu"

%struct.PROPERTY_STRING_DATA = type { ptr, ptr, ptr, i32, i32, ptr, ptr }

@.str = private unnamed_addr constant [45 x i8] c"../openssl/crypto/property/property_string.c\00", align 1
@__func__.ossl_property_str = private unnamed_addr constant [18 x i8] c"ossl_property_str\00", align 1

; Function Attrs: inlinehint nounwind uwtable
define internal ptr @ossl_check_const_OPENSSL_CSTRING_sk_type(ptr noundef %0) #3 {
  %2 = alloca ptr, align 8
  store ptr %0, ptr %2, align 8, !tbaa !19
  %3 = load ptr, ptr %2, align 8, !tbaa !19
  ret ptr %3
}

; Function Attrs: nounwind uwtable
define internal ptr @ossl_property_str(i32 noundef %0, ptr noundef %1, i32 noundef %2) #0 {
  %4 = alloca ptr, align 8
  %5 = alloca i32, align 4
  %6 = alloca ptr, align 8
  %7 = alloca i32, align 4
  %8 = alloca ptr, align 8
  %9 = alloca ptr, align 8
  %10 = alloca i32, align 4
  store i32 %0, ptr %5, align 4, !tbaa !28
  store ptr %1, ptr %6, align 8, !tbaa !20
  store i32 %2, ptr %7, align 4, !tbaa !28
  call void @llvm.lifetime.start.p0(i64 8, ptr %8) #6
  call void @llvm.lifetime.start.p0(i64 8, ptr %9) #6
  %11 = load ptr, ptr %6, align 8, !tbaa !20
  %12 = call ptr @ossl_lib_ctx_get_data(ptr noundef %11, i32 noundef 3)
  store ptr %12, ptr %9, align 8, !tbaa !3
  %13 = load ptr, ptr %9, align 8, !tbaa !3
  %14 = icmp eq ptr %13, null
  br i1 %14, label %15, label %16

15:                                               ; preds = %3
  store ptr null, ptr %4, align 8
  store i32 1, ptr %10, align 4
  br label %45

16:                                               ; preds = %3
  %17 = load ptr, ptr %9, align 8, !tbaa !3
  %18 = getelementptr inbounds nuw %struct.PROPERTY_STRING_DATA, ptr %17, i32 0, i32 0
  %19 = load ptr, ptr %18, align 8, !tbaa !7
  %20 = call i32 @CRYPTO_THREAD_read_lock(ptr noundef %19)
  %21 = icmp ne i32 %20, 0
  br i1 %21, label %23, label %22

22:                                               ; preds = %16
  call void @ERR_new()
  call void @ERR_set_debug(ptr noundef @.str, i32 noundef 227, ptr noundef @__func__.ossl_property_str)
  call void (i32, i32, ptr, ...) @ERR_set_error(i32 noundef 15, i32 noundef 786703, ptr noundef null)
  store ptr null, ptr %4, align 8
  store i32 1, ptr %10, align 4
  br label %45

23:                                               ; preds = %16
  %24 = load i32, ptr %5, align 4, !tbaa !28
  %25 = icmp ne i32 %24, 0
  br i1 %25, label %26, label %30

26:                                               ; preds = %23
  %27 = load ptr, ptr %9, align 8, !tbaa !3
  %28 = getelementptr inbounds nuw %struct.PROPERTY_STRING_DATA, ptr %27, i32 0, i32 5
  %29 = load ptr, ptr %28, align 8, !tbaa !12
  br label %34

30:                                               ; preds = %23
  %31 = load ptr, ptr %9, align 8, !tbaa !3
  %32 = getelementptr inbounds nuw %struct.PROPERTY_STRING_DATA, ptr %31, i32 0, i32 6
  %33 = load ptr, ptr %32, align 8, !tbaa !13
  br label %34

34:                                               ; preds = %30, %26
  %35 = phi ptr [ %29, %26 ], [ %33, %30 ]
  %36 = call ptr @ossl_check_const_OPENSSL_CSTRING_sk_type(ptr noundef %35)
  %37 = load i32, ptr %7, align 4, !tbaa !28
  %38 = sub nsw i32 %37, 1
  %39 = call ptr @OPENSSL_sk_value(ptr noundef %36, i32 noundef %38)
  store ptr %39, ptr %8, align 8, !tbaa !27
  %40 = load ptr, ptr %9, align 8, !tbaa !3
  %41 = getelementptr inbounds nuw %struct.PROPERTY_STRING_DATA, ptr %40, i32 0, i32 0
  %42 = load ptr, ptr %41, align 8, !tbaa !7
  %43 = call i32 @CRYPTO_THREAD_unlock(ptr noundef %42)
  %44 = load ptr, ptr %8, align 8, !tbaa !27
  store ptr %44, ptr %4, align 8
  store i32 1, ptr %10, align 4
  br label %45

45:                                               ; preds = %34, %22, %15
  call void @llvm.lifetime.end.p0(i64 8, ptr %9) #6
  call void @llvm.lifetime.end.p0(i64 8, ptr %8) #6
  %46 = load ptr, ptr %4, align 8
  ret ptr %46
}