; Function Attrs: nounwind uwtable
define internal fastcc ptr @ossl_property_str(i32 noundef range(i32 0, 2) %0, ptr noundef %1, i32 noundef %2) unnamed_addr #0 {
  %4 = tail call ptr @ossl_lib_ctx_get_data(ptr noundef %1, i32 noundef 3) #8
  %5 = icmp eq ptr %4, null
  br i1 %5, label %16, label %6

6:                                                ; preds = %3
  %7 = load ptr, ptr %4, align 8, !tbaa !3
  %8 = tail call i32 @CRYPTO_THREAD_read_lock(ptr noundef %7) #8
  %.not = icmp eq i32 %8, 0
  br i1 %.not, label %9, label %10

9:                                                ; preds = %6
  tail call void @ERR_new() #8
  tail call void @ERR_set_debug(ptr noundef nonnull @.str, i32 noundef 227, ptr noundef nonnull @__func__.ossl_property_str) #8
  tail call void (i32, i32, ptr, ...) @ERR_set_error(i32 noundef 15, i32 noundef 786703, ptr noundef null) #8
  br label %16

10:                                               ; preds = %6
  %.not10 = icmp eq i32 %0, 0
  %.in.v = select i1 %.not10, i64 40, i64 32
  %.in = getelementptr inbounds nuw i8, ptr %4, i64 %.in.v
  %11 = load ptr, ptr %.in, align 8, !tbaa !21
  %12 = add nsw i32 %2, -1
  %13 = tail call ptr @OPENSSL_sk_value(ptr noundef %11, i32 noundef %12) #8
  %14 = load ptr, ptr %4, align 8, !tbaa !3
  %15 = tail call i32 @CRYPTO_THREAD_unlock(ptr noundef %14) #8
  br label %16

16:                                               ; preds = %3, %10, %9
  %.0 = phi ptr [ %13, %10 ], [ null, %9 ], [ null, %3 ]
  ret ptr %.0
}